Certificate:
    Data:
        Version: 3 (0x2)
        Serial Number: 1 (0x1)
        Signature Algorithm: sha1WithRSAEncryption
        Issuer: C=US, O=SmoothStack, OU=SmoothStack Certificate Authority, CN=SmoothStack Root CA
        Validity
            Not Before: Feb  8 19:43:38 2022 GMT
            Not After : Dec 31 23:59:59 2030 GMT
        Subject: C=US, O=SmoothStack, OU=SmoothStack Certificate Authority, CN=SmoothStack Root CA
        Subject Public Key Info:
            Public Key Algorithm: rsaEncryption
                RSA Public-Key: (2048 bit)
                Modulus:
                    00:cd:11:b5:c6:9f:8a:4f:45:59:6d:ce:fd:77:28:
                    c4:1c:f1:9e:4b:7d:b5:cc:1e:6d:34:e5:e4:48:20:
                    14:5c:ec:91:48:8c:b9:1c:7e:0a:64:3f:63:37:82:
                    f6:4f:e7:f6:d6:ae:a4:bd:9b:4e:af:4c:c1:ab:16:
                    05:73:2a:62:e7:ae:de:3a:48:3a:ff:d6:95:78:e2:
                    ef:11:2b:5f:b7:c8:ca:c5:e4:f6:18:05:c1:e5:ea:
                    35:04:03:9a:31:ea:5c:5c:26:0a:9c:b2:dc:79:f9:
                    e2:18:bd:41:12:e9:ec:9b:ba:18:29:82:7c:3f:c5:
                    92:0a:b2:da:a3:71:24:c5:d9:40:4c:c7:e9:85:16:
                    1f:b4:8f:37:b3:1d:55:dd:1e:d1:72:da:46:eb:e0:
                    f6:e5:55:21:89:10:3a:3c:ed:6c:1f:57:a4:71:13:
                    0e:1d:7f:84:d2:5d:e1:30:af:50:47:41:d3:71:c6:
                    b4:c8:18:84:68:91:8f:18:80:dc:2a:ca:b3:f1:13:
                    0d:f7:3b:02:ad:a8:05:f1:09:06:30:2f:dc:c6:f0:
                    1e:cb:e2:f1:ae:3d:ed:f8:d8:c2:85:47:5e:55:77:
                    c1:13:7f:6e:fa:4f:ad:69:2a:67:41:5f:4d:07:a2:
                    8f:65:40:d9:91:4f:7a:d4:f9:d1:fc:a4:e9:53:b8:
                    0c:65
                Exponent: 65537 (0x10001)
        X509v3 extensions:
            X509v3 Key Usage: critical
                Certificate Sign, CRL Sign
            X509v3 Basic Constraints: critical
                CA:TRUE
            X509v3 Subject Key Identifier: 
                63:6F:42:D4:42:40:B3:87:2C:51:45:19:1F:40:D5:9E:17:62:4D:A0
            X509v3 Authority Key Identifier: 
                keyid:63:6F:42:D4:42:40:B3:87:2C:51:45:19:1F:40:D5:9E:17:62:4D:A0

    Signature Algorithm: sha1WithRSAEncryption
         95:eb:0c:f8:f5:96:09:21:ab:78:2d:2b:dc:47:cb:6b:fb:e9:
         7d:99:0e:1b:fa:7b:81:db:01:46:06:93:2a:f3:d3:9f:81:e6:
         b5:1f:6c:89:3c:c9:e3:98:4a:dd:dc:43:c8:a6:61:50:53:20:
         cf:9b:ce:2e:d7:17:7a:94:43:8b:f9:64:ab:7c:98:2e:be:1a:
         f5:95:4e:22:c2:68:c1:ff:56:ed:32:ec:85:59:86:27:27:74:
         76:65:0b:3e:49:7a:01:f7:06:18:12:dd:4f:4b:a5:7e:39:29:
         fa:c4:d6:98:81:03:4a:c0:40:02:d8:9f:bc:db:ad:0f:6b:32:
         59:08:37:19:84:4f:9f:a9:b3:b2:5c:69:b0:89:75:6b:a5:e0:
         b3:3f:a9:68:00:d1:a2:47:6a:60:9d:f4:db:b5:72:7f:54:07:
         ca:1e:07:07:f9:be:dc:4b:f0:2e:9d:5b:0e:0c:f1:06:39:d6:
         a0:58:a2:97:ab:df:19:22:4d:cb:82:79:29:e2:d8:57:3a:d2:
         9f:0d:49:05:23:bf:0d:01:61:8f:b3:ea:d2:d6:0d:fa:ab:e1:
         a2:dd:e8:17:82:a1:cf:f2:6e:b4:95:ae:2d:68:7d:5c:11:19:
         4b:ff:80:44:4c:e7:d3:6a:18:26:cc:4b:43:e5:c1:b9:a5:2b:
         18:b0:b2:5d
-----BEGIN CERTIFICATE-----
MIIDuDCCAqCgAwIBAgIBATANBgkqhkiG9w0BAQUFADBtMQswCQYDVQQGEwJVUzEU
MBIGA1UECgwLU21vb3RoU3RhY2sxKjAoBgNVBAsMIVNtb290aFN0YWNrIENlcnRp
ZmljYXRlIEF1dGhvcml0eTEcMBoGA1UEAwwTU21vb3RoU3RhY2sgUm9vdCBDQTAe
Fw0yMjAyMDgxOTQzMzhaFw0zMDEyMzEyMzU5NTlaMG0xCzAJBgNVBAYTAlVTMRQw
EgYDVQQKDAtTbW9vdGhTdGFjazEqMCgGA1UECwwhU21vb3RoU3RhY2sgQ2VydGlm
aWNhdGUgQXV0aG9yaXR5MRwwGgYDVQQDDBNTbW9vdGhTdGFjayBSb290IENBMIIB
IjANBgkqhkiG9w0BAQEFAAOCAQ8AMIIBCgKCAQEAzRG1xp+KT0VZbc79dyjEHPGe
S321zB5tNOXkSCAUXOyRSIy5HH4KZD9jN4L2T+f21q6kvZtOr0zBqxYFcypi567e
Okg6/9aVeOLvEStft8jKxeT2GAXB5eo1BAOaMepcXCYKnLLcefniGL1BEunsm7oY
KYJ8P8WSCrLao3EkxdlATMfphRYftI83sx1V3R7RctpG6+D25VUhiRA6PO1sH1ek
cRMOHX+E0l3hMK9QR0HTcca0yBiEaJGPGIDcKsqz8RMN9zsCragF8QkGMC/cxvAe
y+Lxrj3t+NjChUdeVXfBE39u+k+taSpnQV9NB6KPZUDZkU961PnR/KTpU7gMZQID
AQABo2MwYTAOBgNVHQ8BAf8EBAMCAQYwDwYDVR0TAQH/BAUwAwEB/zAdBgNVHQ4E
FgQUY29C1EJAs4csUUUZH0DVnhdiTaAwHwYDVR0jBBgwFoAUY29C1EJAs4csUUUZ
H0DVnhdiTaAwDQYJKoZIhvcNAQEFBQADggEBAJXrDPj1lgkhq3gtK9xHy2v76X2Z
Dhv6e4HbAUYGkyrz05+B5rUfbIk8yeOYSt3cQ8imYVBTIM+bzi7XF3qUQ4v5ZKt8
mC6+GvWVTiLCaMH/Vu0y7IVZhicndHZlCz5JegH3BhgS3U9LpX45KfrE1piBA0rA
QALYn7zbrQ9rMlkINxmET5+ps7JcabCJdWul4LM/qWgA0aJHamCd9Nu1cn9UB8oe
Bwf5vtxL8C6dWw4M8QY51qBYoper3xkiTcuCeSni2Fc60p8NSQUjvw0BYY+z6tLW
Dfqr4aLd6BeCoc/ybrSVri1ofVwRGUv/gERM59NqGCbMS0PlwbmlKxiwsl0=
-----END CERTIFICATE-----
