Certificate:
    Data:
        Version: 3 (0x2)
        Serial Number: 2 (0x2)
        Signature Algorithm: sha1WithRSAEncryption
        Issuer: C=US, O=SmoothStack, OU=SmoothStack Certificate Authority, CN=SmoothStack Root CA
        Validity
            Not Before: Feb  8 19:43:57 2022 GMT
            Not After : Feb  8 19:43:57 2032 GMT
        Subject: C=US, O=SmoothStack, OU=SmoothStack Certificate Authority, CN=SmoothStack TLS CA
        Subject Public Key Info:
            Public Key Algorithm: rsaEncryption
                RSA Public-Key: (2048 bit)
                Modulus:
                    00:e8:0f:14:88:20:b7:c1:9d:94:8c:49:32:b6:22:
                    38:af:1c:0d:b7:20:ed:cf:52:d5:b9:73:4f:5b:d4:
                    f5:97:e6:bb:17:17:1e:10:a0:4b:9a:32:34:59:a5:
                    11:df:da:96:f9:3d:32:dd:ce:5d:90:fb:d6:85:93:
                    28:0c:61:88:1e:46:ee:dc:25:3e:55:bd:76:e9:16:
                    78:3d:22:6b:4f:8b:38:96:2c:5b:b2:7f:ed:53:be:
                    b4:c4:40:0e:42:92:c2:b1:20:be:a4:83:e6:eb:7c:
                    56:35:dd:5c:8d:8e:1c:53:54:c6:b9:27:6a:b2:5a:
                    69:d2:c6:97:e2:00:6c:6e:84:f0:32:db:50:15:16:
                    ec:90:bb:3c:6d:ca:23:88:c6:c0:e0:9c:8d:82:e2:
                    9c:bc:5d:53:aa:ca:10:39:2a:fc:88:a2:4b:09:65:
                    8b:4c:cf:81:9e:d2:1d:c6:bb:d0:d3:5d:26:98:45:
                    68:38:66:14:fa:ed:9c:fe:a9:58:01:f5:91:27:1d:
                    52:90:71:58:fa:9e:dc:02:33:e7:11:7b:64:c7:97:
                    72:84:78:d3:de:9c:33:cd:79:31:33:ca:aa:d2:87:
                    c6:dd:05:b4:b0:6a:47:78:c1:e7:a0:8f:c4:37:11:
                    37:c5:ca:94:4a:af:7b:cd:42:8d:0b:e5:ce:be:55:
                    2e:61
                Exponent: 65537 (0x10001)
        X509v3 extensions:
            X509v3 Key Usage: critical
                Certificate Sign, CRL Sign
            X509v3 Basic Constraints: critical
                CA:TRUE, pathlen:0
            X509v3 Subject Key Identifier: 
                92:7A:8D:49:F0:B2:DC:C7:87:32:DC:00:86:0D:AA:92:85:C5:82:96
            X509v3 Authority Key Identifier: 
                keyid:63:6F:42:D4:42:40:B3:87:2C:51:45:19:1F:40:D5:9E:17:62:4D:A0

            Authority Information Access: 
                CA Issuers - URI:http://smoothstack.com/ca/root-ca.cer

            X509v3 CRL Distribution Points: 

                Full Name:
                  URI:http://smoothstack.com/ca/root-ca.crl

    Signature Algorithm: sha1WithRSAEncryption
         4a:7e:e9:a3:fb:90:0c:ea:cf:8b:6a:37:50:3a:b3:17:b6:d9:
         1a:88:7a:e2:36:6b:a8:b7:60:95:6d:e2:4a:ae:2d:13:b7:41:
         89:80:74:c2:87:39:01:78:ab:41:ab:34:56:43:a2:b9:07:cd:
         71:40:55:41:b0:49:7b:5c:30:bf:63:c5:f5:c0:e1:66:d3:eb:
         0f:01:6c:c3:42:bd:ef:13:41:7f:f1:53:22:5f:a3:d3:86:66:
         1c:4d:c7:e4:1a:d2:cb:f8:2b:70:01:7f:c6:b9:18:99:04:5d:
         35:7b:85:39:2c:c6:a7:04:79:1e:d0:cf:8d:90:f6:ac:35:19:
         e0:8e:08:86:86:5f:28:58:77:2d:ab:50:a5:f9:85:1d:43:59:
         26:4d:3d:d4:1b:42:93:7e:eb:82:28:0a:33:f2:61:5c:11:9e:
         18:e5:54:58:00:e1:d8:88:8a:48:b8:a5:e0:f7:6e:c1:41:91:
         51:ab:c3:df:f4:29:8d:99:17:76:3f:dc:be:96:29:0c:df:34:
         60:cf:e7:29:73:d3:42:f4:47:27:9d:d8:0c:da:fa:07:7e:0c:
         0d:87:8c:05:2c:dd:9d:99:59:02:e3:b3:6d:92:7c:0f:3f:f8:
         48:60:7c:5a:1b:f7:1d:c2:05:19:9f:43:ba:36:a0:5f:3e:03:
         93:37:29:ef
-----BEGIN CERTIFICATE-----
MIIENzCCAx+gAwIBAgIBAjANBgkqhkiG9w0BAQUFADBtMQswCQYDVQQGEwJVUzEU
MBIGA1UECgwLU21vb3RoU3RhY2sxKjAoBgNVBAsMIVNtb290aFN0YWNrIENlcnRp
ZmljYXRlIEF1dGhvcml0eTEcMBoGA1UEAwwTU21vb3RoU3RhY2sgUm9vdCBDQTAe
Fw0yMjAyMDgxOTQzNTdaFw0zMjAyMDgxOTQzNTdaMGwxCzAJBgNVBAYTAlVTMRQw
EgYDVQQKDAtTbW9vdGhTdGFjazEqMCgGA1UECwwhU21vb3RoU3RhY2sgQ2VydGlm
aWNhdGUgQXV0aG9yaXR5MRswGQYDVQQDDBJTbW9vdGhTdGFjayBUTFMgQ0EwggEi
MA0GCSqGSIb3DQEBAQUAA4IBDwAwggEKAoIBAQDoDxSIILfBnZSMSTK2IjivHA23
IO3PUtW5c09b1PWX5rsXFx4QoEuaMjRZpRHf2pb5PTLdzl2Q+9aFkygMYYgeRu7c
JT5VvXbpFng9ImtPiziWLFuyf+1TvrTEQA5CksKxIL6kg+brfFY13VyNjhxTVMa5
J2qyWmnSxpfiAGxuhPAy21AVFuyQuzxtyiOIxsDgnI2C4py8XVOqyhA5KvyIoksJ
ZYtMz4Ge0h3Gu9DTXSaYRWg4ZhT67Zz+qVgB9ZEnHVKQcVj6ntwCM+cRe2THl3KE
eNPenDPNeTEzyqrSh8bdBbSwakd4weegj8Q3ETfFypRKr3vNQo0L5c6+VS5hAgMB
AAGjgeIwgd8wDgYDVR0PAQH/BAQDAgEGMBIGA1UdEwEB/wQIMAYBAf8CAQAwHQYD
VR0OBBYEFJJ6jUnwstzHhzLcAIYNqpKFxYKWMB8GA1UdIwQYMBaAFGNvQtRCQLOH
LFFFGR9A1Z4XYk2gMEEGCCsGAQUFBwEBBDUwMzAxBggrBgEFBQcwAoYlaHR0cDov
L3Ntb290aHN0YWNrLmNvbS9jYS9yb290LWNhLmNlcjA2BgNVHR8ELzAtMCugKaAn
hiVodHRwOi8vc21vb3Roc3RhY2suY29tL2NhL3Jvb3QtY2EuY3JsMA0GCSqGSIb3
DQEBBQUAA4IBAQBKfumj+5AM6s+LajdQOrMXttkaiHriNmuot2CVbeJKri0Tt0GJ
gHTChzkBeKtBqzRWQ6K5B81xQFVBsEl7XDC/Y8X1wOFm0+sPAWzDQr3vE0F/8VMi
X6PThmYcTcfkGtLL+CtwAX/GuRiZBF01e4U5LManBHke0M+NkPasNRngjgiGhl8o
WHctq1Cl+YUdQ1kmTT3UG0KTfuuCKAoz8mFcEZ4Y5VRYAOHYiIpIuKXg927BQZFR
q8Pf9CmNmRd2P9y+likM3zRgz+cpc9NC9EcnndgM2voHfgwNh4wFLN2dmVkC47Nt
knwPP/hIYHxaG/cdwgUZn0O6NqBfPgOTNynv
-----END CERTIFICATE-----
