Certificate:
    Data:
        Version: 3 (0x2)
        Serial Number: 3 (0x3)
        Signature Algorithm: sha1WithRSAEncryption
        Issuer: C=US, O=SmoothStack, OU=SmoothStack Certificate Authority, CN=SmoothStack Root CA
        Validity
            Not Before: Feb  8 19:44:18 2022 GMT
            Not After : Feb  8 19:44:18 2032 GMT
        Subject: C=US, O=SmoothStack, OU=SmoothStack Certificate Authority, CN=SmoothStack Document CA
        Subject Public Key Info:
            Public Key Algorithm: rsaEncryption
                RSA Public-Key: (2048 bit)
                Modulus:
                    00:ae:f0:b1:92:b2:b1:03:48:9c:56:32:7c:e0:0b:
                    61:b4:53:d9:ff:3c:6b:ab:d0:bf:5e:99:4c:18:2d:
                    eb:8b:ad:87:4e:44:92:c7:f8:b5:06:db:e1:17:e0:
                    8a:0b:c6:76:f0:6c:dc:80:4e:cd:d6:4c:e9:0c:53:
                    f9:23:a3:69:70:35:a4:37:55:a3:a2:cb:7d:db:c6:
                    8c:b7:5f:2a:ad:11:7c:ad:37:39:2c:15:4a:55:c4:
                    27:0c:d1:c5:79:07:50:62:b5:1d:f6:a7:3e:58:18:
                    99:b1:52:7b:4e:30:f9:1e:f1:08:a7:6e:93:b9:2f:
                    fa:fb:53:be:0e:6b:47:81:ec:f2:70:b3:49:1d:37:
                    20:6f:d4:87:98:5d:93:f0:90:a6:c7:55:c8:18:0a:
                    e7:b3:f3:9c:ea:48:8c:51:4e:67:68:a6:8e:0f:d2:
                    a5:13:ac:45:15:40:b2:e0:73:f3:40:b9:32:13:82:
                    cb:fb:22:05:40:04:78:db:85:36:58:57:bc:c9:03:
                    c3:1a:37:7b:ef:5b:90:df:0d:f3:ed:01:61:56:15:
                    49:c7:8e:69:87:db:dc:37:c1:86:3a:98:d2:a9:90:
                    a5:c3:7d:12:4b:21:d2:ec:79:91:37:de:80:36:d8:
                    a4:8e:da:30:6a:d6:24:d4:0e:cf:d0:d8:59:b8:3f:
                    c9:53
                Exponent: 65537 (0x10001)
        X509v3 extensions:
            X509v3 Key Usage: critical
                Certificate Sign, CRL Sign
            X509v3 Basic Constraints: critical
                CA:TRUE, pathlen:0
            X509v3 Subject Key Identifier: 
                A9:A7:AB:C6:28:C0:89:09:05:D9:3F:DD:1B:42:AA:48:CF:85:51:1A
            X509v3 Authority Key Identifier: 
                keyid:63:6F:42:D4:42:40:B3:87:2C:51:45:19:1F:40:D5:9E:17:62:4D:A0

            Authority Information Access: 
                CA Issuers - URI:http://smoothstack.com/ca/root-ca.cer

            X509v3 CRL Distribution Points: 

                Full Name:
                  URI:http://smoothstack.com/ca/root-ca.crl

    Signature Algorithm: sha1WithRSAEncryption
         72:10:de:e5:68:7b:8e:83:23:95:2c:57:91:dd:9a:fd:d3:05:
         e6:f6:d2:53:3d:4e:46:5c:19:f5:78:d3:40:b7:31:3d:6a:59:
         f8:2a:49:61:e5:d5:f5:53:76:83:86:1e:b1:8c:30:ce:4c:f7:
         25:d8:3d:53:f6:d7:f4:01:10:5a:fb:1c:1a:cc:d7:8a:3d:e0:
         e3:d0:c1:ed:7f:2b:01:b1:32:33:ca:f3:df:a2:5f:e3:68:a8:
         14:0a:ec:fb:e7:05:b5:d2:56:17:dc:f4:7d:05:a7:c9:9b:f8:
         f7:d2:1d:7f:ca:58:56:31:ac:5e:9f:52:59:d8:31:07:54:c2:
         31:48:13:9e:1e:61:d3:78:a0:05:20:12:54:f4:83:79:22:6f:
         4c:97:25:8c:94:b8:bb:47:54:bb:d7:a4:b4:59:35:b4:0e:15:
         42:26:be:08:e6:fa:e6:2c:10:24:bc:e3:35:9b:45:45:6b:bf:
         e1:20:51:7e:8d:7a:ec:29:82:5c:44:44:0d:63:38:49:7f:b4:
         49:40:2c:6b:95:25:1e:da:0d:c3:43:15:57:e9:7a:ac:cf:58:
         7d:33:66:a1:fb:9c:c0:f4:4c:91:5a:e4:87:17:38:ab:5a:42:
         e3:a0:60:5b:16:93:bd:d0:26:d1:35:ae:15:24:a2:fb:b9:d5:
         ea:fd:62:04
-----BEGIN CERTIFICATE-----
MIIEPDCCAySgAwIBAgIBAzANBgkqhkiG9w0BAQUFADBtMQswCQYDVQQGEwJVUzEU
MBIGA1UECgwLU21vb3RoU3RhY2sxKjAoBgNVBAsMIVNtb290aFN0YWNrIENlcnRp
ZmljYXRlIEF1dGhvcml0eTEcMBoGA1UEAwwTU21vb3RoU3RhY2sgUm9vdCBDQTAe
Fw0yMjAyMDgxOTQ0MThaFw0zMjAyMDgxOTQ0MThaMHExCzAJBgNVBAYTAlVTMRQw
EgYDVQQKDAtTbW9vdGhTdGFjazEqMCgGA1UECwwhU21vb3RoU3RhY2sgQ2VydGlm
aWNhdGUgQXV0aG9yaXR5MSAwHgYDVQQDDBdTbW9vdGhTdGFjayBEb2N1bWVudCBD
QTCCASIwDQYJKoZIhvcNAQEBBQADggEPADCCAQoCggEBAK7wsZKysQNInFYyfOAL
YbRT2f88a6vQv16ZTBgt64uth05Eksf4tQbb4RfgigvGdvBs3IBOzdZM6QxT+SOj
aXA1pDdVo6LLfdvGjLdfKq0RfK03OSwVSlXEJwzRxXkHUGK1HfanPlgYmbFSe04w
+R7xCKduk7kv+vtTvg5rR4Hs8nCzSR03IG/Uh5hdk/CQpsdVyBgK57PznOpIjFFO
Z2imjg/SpROsRRVAsuBz80C5MhOCy/siBUAEeNuFNlhXvMkDwxo3e+9bkN8N8+0B
YVYVSceOaYfb3DfBhjqY0qmQpcN9Eksh0ux5kTfegDbYpI7aMGrWJNQOz9DYWbg/
yVMCAwEAAaOB4jCB3zAOBgNVHQ8BAf8EBAMCAQYwEgYDVR0TAQH/BAgwBgEB/wIB
ADAdBgNVHQ4EFgQUqaerxijAiQkF2T/dG0KqSM+FURowHwYDVR0jBBgwFoAUY29C
1EJAs4csUUUZH0DVnhdiTaAwQQYIKwYBBQUHAQEENTAzMDEGCCsGAQUFBzAChiVo
dHRwOi8vc21vb3Roc3RhY2suY29tL2NhL3Jvb3QtY2EuY2VyMDYGA1UdHwQvMC0w
K6ApoCeGJWh0dHA6Ly9zbW9vdGhzdGFjay5jb20vY2Evcm9vdC1jYS5jcmwwDQYJ
KoZIhvcNAQEFBQADggEBAHIQ3uVoe46DI5UsV5Hdmv3TBeb20lM9TkZcGfV400C3
MT1qWfgqSWHl1fVTdoOGHrGMMM5M9yXYPVP21/QBEFr7HBrM14o94OPQwe1/KwGx
MjPK89+iX+NoqBQK7PvnBbXSVhfc9H0Fp8mb+PfSHX/KWFYxrF6fUlnYMQdUwjFI
E54eYdN4oAUgElT0g3kib0yXJYyUuLtHVLvXpLRZNbQOFUImvgjm+uYsECS84zWb
RUVrv+EgUX6NeuwpglxERA1jOEl/tElALGuVJR7aDcNDFVfpeqzPWH0zZqH7nMD0
TJFa5IcXOKtaQuOgYFsWk73QJtE1rhUkovu51er9YgQ=
-----END CERTIFICATE-----
