Certificate:
    Data:
        Version: 3 (0x2)
        Serial Number: 5 (0x5)
        Signature Algorithm: sha1WithRSAEncryption
        Issuer: C=US, O=SmoothStack, OU=SmoothStack Certificate Authority, CN=SmoothStack Root CA
        Validity
            Not Before: Feb  8 19:56:05 2022 GMT
            Not After : Feb  8 19:56:05 2032 GMT
        Subject: C=US, O=SmoothStack, OU=SmoothStack Certificate Authority, CN=SmoothStack Document CA
        Subject Public Key Info:
            Public Key Algorithm: rsaEncryption
                RSA Public-Key: (2048 bit)
                Modulus:
                    00:e7:52:4e:91:fb:cb:b3:b3:d7:2a:b2:8f:35:33:
                    d5:ee:f5:17:56:e8:b5:e5:f6:9b:ec:bc:95:99:64:
                    55:a5:cc:f6:48:94:b0:0a:0e:67:11:a2:cf:73:18:
                    b7:b4:ce:85:e2:5f:06:4f:c6:c8:11:3e:a3:63:4c:
                    d3:b0:fc:9b:30:94:e5:c8:9a:5a:fa:f3:cc:21:f4:
                    a8:fd:95:5a:26:f8:18:1f:63:39:13:2d:09:f9:b2:
                    40:cf:fe:ca:01:13:52:a7:dd:b0:ea:e7:59:20:bc:
                    47:e1:fb:4f:7e:e7:83:49:37:b8:ec:e8:30:76:6a:
                    d4:4d:3b:13:da:9d:7b:eb:5f:8a:a7:89:c5:cd:11:
                    f8:63:07:cd:44:2d:07:6a:22:5f:16:cb:1f:b8:4b:
                    98:87:e5:62:66:17:04:f4:f8:d8:d3:b9:c3:1f:6b:
                    df:c1:7a:6b:d3:fd:0b:4b:9e:77:16:67:ac:7d:00:
                    e0:6c:75:84:9d:26:59:29:ac:4d:6e:61:69:b6:cc:
                    5d:55:50:66:6b:4f:13:c1:bc:cc:2e:5f:f8:d2:22:
                    4e:de:c4:01:94:11:dd:88:39:c8:e4:56:17:6a:f5:
                    a7:9b:57:94:cb:5b:d1:15:dd:72:70:e4:cd:66:55:
                    98:70:3e:77:ac:6b:28:f5:c4:28:03:8b:00:fe:21:
                    5a:03
                Exponent: 65537 (0x10001)
        X509v3 extensions:
            X509v3 Key Usage: critical
                Certificate Sign, CRL Sign
            X509v3 Basic Constraints: critical
                CA:TRUE, pathlen:0
            X509v3 Subject Key Identifier: 
                31:75:3F:97:15:B6:FB:34:57:23:82:97:E8:26:A4:6D:C9:8D:03:0C
            X509v3 Authority Key Identifier: 
                keyid:63:6F:42:D4:42:40:B3:87:2C:51:45:19:1F:40:D5:9E:17:62:4D:A0

            Authority Information Access: 
                CA Issuers - URI:http://smoothstack.com/ca/root-ca.cer

            X509v3 CRL Distribution Points: 

                Full Name:
                  URI:http://smoothstack.com/ca/root-ca.crl

    Signature Algorithm: sha1WithRSAEncryption
         ba:20:16:c0:12:5b:33:28:75:21:3c:13:a8:ac:58:fd:de:7a:
         7b:af:e7:fd:bc:78:b2:0a:4e:5f:80:b8:36:d1:90:5d:4b:8f:
         7f:bf:61:9c:2b:18:fd:7a:9d:9e:a1:3e:50:89:e3:85:11:22:
         a7:5f:e1:7e:87:40:c5:53:39:b4:b7:8b:ad:18:55:f0:6b:9a:
         4d:7d:4a:26:6b:ce:43:bf:53:70:40:91:b8:59:b5:16:6d:75:
         26:0a:6b:16:04:64:d2:4c:c1:db:53:b0:ef:d3:8c:78:22:24:
         ac:56:0b:5e:35:33:ef:9b:c8:ed:91:e0:14:dd:16:74:79:13:
         c2:01:00:e5:53:49:0e:2f:69:8c:35:61:a9:ca:f6:38:d6:7b:
         7d:87:07:9f:f8:6e:6c:88:be:04:68:36:15:ba:92:0a:33:51:
         a3:19:ce:f2:e5:c1:db:11:a7:9b:12:2b:1c:f5:85:db:ec:b6:
         8a:ea:32:25:57:e0:12:87:db:c3:44:4a:35:8e:10:d0:f2:e3:
         ae:c1:61:27:a7:fb:62:90:5f:69:5b:55:f1:c0:e1:6b:6c:f1:
         cd:da:fa:0c:8b:c0:14:71:16:5d:79:2d:3f:7a:b2:dd:6b:99:
         f7:aa:f5:4b:95:16:ea:52:a7:a9:7a:0a:0d:d8:b0:36:79:33:
         36:09:08:21
-----BEGIN CERTIFICATE-----
MIIEPDCCAySgAwIBAgIBBTANBgkqhkiG9w0BAQUFADBtMQswCQYDVQQGEwJVUzEU
MBIGA1UECgwLU21vb3RoU3RhY2sxKjAoBgNVBAsMIVNtb290aFN0YWNrIENlcnRp
ZmljYXRlIEF1dGhvcml0eTEcMBoGA1UEAwwTU21vb3RoU3RhY2sgUm9vdCBDQTAe
Fw0yMjAyMDgxOTU2MDVaFw0zMjAyMDgxOTU2MDVaMHExCzAJBgNVBAYTAlVTMRQw
EgYDVQQKDAtTbW9vdGhTdGFjazEqMCgGA1UECwwhU21vb3RoU3RhY2sgQ2VydGlm
aWNhdGUgQXV0aG9yaXR5MSAwHgYDVQQDDBdTbW9vdGhTdGFjayBEb2N1bWVudCBD
QTCCASIwDQYJKoZIhvcNAQEBBQADggEPADCCAQoCggEBAOdSTpH7y7Oz1yqyjzUz
1e71F1boteX2m+y8lZlkVaXM9kiUsAoOZxGiz3MYt7TOheJfBk/GyBE+o2NM07D8
mzCU5ciaWvrzzCH0qP2VWib4GB9jORMtCfmyQM/+ygETUqfdsOrnWSC8R+H7T37n
g0k3uOzoMHZq1E07E9qde+tfiqeJxc0R+GMHzUQtB2oiXxbLH7hLmIflYmYXBPT4
2NO5wx9r38F6a9P9C0uedxZnrH0A4Gx1hJ0mWSmsTW5habbMXVVQZmtPE8G8zC5f
+NIiTt7EAZQR3Yg5yORWF2r1p5tXlMtb0RXdcnDkzWZVmHA+d6xrKPXEKAOLAP4h
WgMCAwEAAaOB4jCB3zAOBgNVHQ8BAf8EBAMCAQYwEgYDVR0TAQH/BAgwBgEB/wIB
ADAdBgNVHQ4EFgQUMXU/lxW2+zRXI4KX6CakbcmNAwwwHwYDVR0jBBgwFoAUY29C
1EJAs4csUUUZH0DVnhdiTaAwQQYIKwYBBQUHAQEENTAzMDEGCCsGAQUFBzAChiVo
dHRwOi8vc21vb3Roc3RhY2suY29tL2NhL3Jvb3QtY2EuY2VyMDYGA1UdHwQvMC0w
K6ApoCeGJWh0dHA6Ly9zbW9vdGhzdGFjay5jb20vY2Evcm9vdC1jYS5jcmwwDQYJ
KoZIhvcNAQEFBQADggEBALogFsASWzModSE8E6isWP3eenuv5/28eLIKTl+AuDbR
kF1Lj3+/YZwrGP16nZ6hPlCJ44URIqdf4X6HQMVTObS3i60YVfBrmk19SiZrzkO/
U3BAkbhZtRZtdSYKaxYEZNJMwdtTsO/TjHgiJKxWC141M++byO2R4BTdFnR5E8IB
AOVTSQ4vaYw1YanK9jjWe32HB5/4bmyIvgRoNhW6kgozUaMZzvLlwdsRp5sSKxz1
hdvstorqMiVX4BKH28NESjWOENDy467BYSen+2KQX2lbVfHA4Wts8c3a+gyLwBRx
Fl15LT96st1rmfeq9UuVFupSp6l6Cg3YsDZ5MzYJCCE=
-----END CERTIFICATE-----
