Certificate:
    Data:
        Version: 3 (0x2)
        Serial Number: 1 (0x1)
        Signature Algorithm: sha1WithRSAEncryption
        Issuer: C=US, O=SmoothStack, OU=SmoothStack Certificate Authority, CN=SmoothStack TLS CA
        Validity
            Not Before: Feb  8 19:51:41 2022 GMT
            Not After : Feb  8 19:51:41 2024 GMT
        Subject: C=US, ST=Virginia, L=McLean, O=SmoothStack, OU=Training, CN=smoothstack.com
        Subject Public Key Info:
            Public Key Algorithm: rsaEncryption
                RSA Public-Key: (2048 bit)
                Modulus:
                    00:ac:7a:4d:d1:27:f7:26:c7:0d:5d:46:23:84:79:
                    3f:47:e6:b5:cf:12:a6:e7:24:63:65:8c:fc:e6:84:
                    d4:c7:c4:b8:9b:ed:bf:2a:60:56:16:ea:2d:e7:ff:
                    50:18:e6:49:25:3b:a6:2e:8d:b0:c9:80:83:7e:78:
                    50:bd:cb:f0:92:1f:7e:6a:1e:76:77:e9:d3:fd:e1:
                    43:dc:49:4f:17:e0:56:e2:53:38:aa:fd:f8:a3:5c:
                    1b:49:b3:7f:73:73:d2:cd:e0:84:57:bb:0d:72:2f:
                    81:98:3a:f3:ae:76:c5:c6:1b:b8:a9:5c:2d:8e:f7:
                    1f:00:fd:e8:3b:b2:1e:54:ab:6f:45:8a:9e:4d:50:
                    e9:30:d8:bc:79:5d:64:37:29:22:58:1b:38:1f:dd:
                    86:72:5b:99:a6:22:f9:29:90:c6:d9:0c:28:26:ff:
                    69:01:79:8c:a5:1b:94:13:e5:46:2f:2c:30:6d:f8:
                    1d:3b:53:60:bb:fb:00:92:cc:0e:32:57:1c:01:90:
                    72:a6:04:9f:2a:f7:97:fb:ef:63:35:22:dd:fb:e4:
                    4d:a3:ec:80:05:ef:2c:e3:4a:40:6b:38:e5:a5:fe:
                    7a:bb:97:66:88:10:f0:13:03:fc:a8:cf:6b:77:99:
                    f2:34:db:ab:31:55:04:1a:d9:73:50:d7:0b:65:e3:
                    58:d9
                Exponent: 65537 (0x10001)
        X509v3 extensions:
            X509v3 Key Usage: critical
                Digital Signature, Key Encipherment
            X509v3 Basic Constraints: 
                CA:FALSE
            X509v3 Extended Key Usage: 
                TLS Web Server Authentication, TLS Web Client Authentication
            X509v3 Subject Key Identifier: 
                48:67:3A:B5:06:C6:07:50:FE:6E:51:63:15:24:75:D5:11:92:9D:AF
            X509v3 Authority Key Identifier: 
                keyid:79:AE:F2:A8:DE:F2:EF:9A:87:5F:C3:F5:1F:6F:63:2C:58:29:46:3A

            Authority Information Access: 
                CA Issuers - URI:http://smoothstack.no/ca/tls-ca.cer

            X509v3 CRL Distribution Points: 

                Full Name:
                  URI:http://smoothstack.no/ca/tls-ca.crl

            X509v3 Subject Alternative Name: 
                DNS:smoothstack.com, DNS:www.smoothstack.com
    Signature Algorithm: sha1WithRSAEncryption
         14:68:75:d3:c2:06:0c:71:20:93:05:38:4e:32:f1:aa:6f:a5:
         6e:e7:ea:79:d2:59:cc:13:55:da:2e:c9:7b:38:f1:d2:62:e6:
         40:9a:52:b4:12:88:b4:4d:72:90:87:a0:91:e0:5c:c5:05:da:
         29:30:2b:c8:8e:c1:ed:a0:25:3c:32:5b:5f:ea:9a:d0:41:ce:
         f1:6c:f4:f7:98:92:97:59:6c:d7:c8:44:62:fb:ef:96:8c:ad:
         08:c9:18:42:38:66:a8:ed:88:db:c3:6a:e3:71:69:c0:f1:25:
         4c:81:79:0e:e8:cb:0e:f8:1b:f5:85:bc:58:b4:d5:88:60:f9:
         e7:d8:86:d5:e9:1c:ab:ed:29:90:a5:e4:a9:8d:cb:52:2f:cf:
         ae:d2:0e:ac:ae:f4:c1:78:43:1f:12:83:c8:5c:71:97:8e:85:
         3d:3e:ea:6c:f1:33:69:9a:57:6f:40:de:da:60:b6:9e:27:6c:
         2e:c9:08:f9:f2:4e:39:f2:2b:84:f3:5b:dd:e8:0f:a1:81:47:
         cf:ca:33:bd:6e:0f:bb:6d:c5:f3:e3:70:3e:1b:63:b2:8e:61:
         4b:34:fe:93:a1:0c:9e:bc:79:3c:09:7d:83:e7:9d:89:9a:b6:
         1d:43:9f:ed:a3:2b:62:ab:13:bf:44:90:d5:a2:e4:95:d0:d5:
         8e:ea:25:d3
-----BEGIN CERTIFICATE-----
MIIEgzCCA2ugAwIBAgIBATANBgkqhkiG9w0BAQUFADBsMQswCQYDVQQGEwJVUzEU
MBIGA1UECgwLU21vb3RoU3RhY2sxKjAoBgNVBAsMIVNtb290aFN0YWNrIENlcnRp
ZmljYXRlIEF1dGhvcml0eTEbMBkGA1UEAwwSU21vb3RoU3RhY2sgVExTIENBMB4X
DTIyMDIwODE5NTE0MVoXDTI0MDIwODE5NTE0MVowdDELMAkGA1UEBhMCVVMxETAP
BgNVBAgMCFZpcmdpbmlhMQ8wDQYDVQQHDAZNY0xlYW4xFDASBgNVBAoMC1Ntb290
aFN0YWNrMREwDwYDVQQLDAhUcmFpbmluZzEYMBYGA1UEAwwPc21vb3Roc3RhY2su
Y29tMIIBIjANBgkqhkiG9w0BAQEFAAOCAQ8AMIIBCgKCAQEArHpN0Sf3JscNXUYj
hHk/R+a1zxKm5yRjZYz85oTUx8S4m+2/KmBWFuot5/9QGOZJJTumLo2wyYCDfnhQ
vcvwkh9+ah52d+nT/eFD3ElPF+BW4lM4qv34o1wbSbN/c3PSzeCEV7sNci+BmDrz
rnbFxhu4qVwtjvcfAP3oO7IeVKtvRYqeTVDpMNi8eV1kNykiWBs4H92GcluZpiL5
KZDG2QwoJv9pAXmMpRuUE+VGLywwbfgdO1Ngu/sAkswOMlccAZBypgSfKveX++9j
NSLd++RNo+yABe8s40pAazjlpf56u5dmiBDwEwP8qM9rd5nyNNurMVUEGtlzUNcL
ZeNY2QIDAQABo4IBJjCCASIwDgYDVR0PAQH/BAQDAgWgMAkGA1UdEwQCMAAwHQYD
VR0lBBYwFAYIKwYBBQUHAwEGCCsGAQUFBwMCMB0GA1UdDgQWBBRIZzq1BsYHUP5u
UWMVJHXVEZKdrzAfBgNVHSMEGDAWgBR5rvKo3vLvmodfw/Ufb2MsWClGOjA/Bggr
BgEFBQcBAQQzMDEwLwYIKwYBBQUHMAKGI2h0dHA6Ly9zbW9vdGhzdGFjay5uby9j
YS90bHMtY2EuY2VyMDQGA1UdHwQtMCswKaAnoCWGI2h0dHA6Ly9zbW9vdGhzdGFj
ay5uby9jYS90bHMtY2EuY3JsMC8GA1UdEQQoMCaCD3Ntb290aHN0YWNrLmNvbYIT
d3d3LnNtb290aHN0YWNrLmNvbTANBgkqhkiG9w0BAQUFAAOCAQEAFGh108IGDHEg
kwU4TjLxqm+lbufqedJZzBNV2i7Jezjx0mLmQJpStBKItE1ykIegkeBcxQXaKTAr
yI7B7aAlPDJbX+qa0EHO8Wz095iSl1ls18hEYvvvloytCMkYQjhmqO2I28Nq43Fp
wPElTIF5DujLDvgb9YW8WLTViGD559iG1ekcq+0pkKXkqY3LUi/PrtIOrK70wXhD
HxKDyFxxl46FPT7qbPEzaZpXb0De2mC2nidsLskI+fJOOfIrhPNb3egPoYFHz8oz
vW4Pu23F8+NwPhtjso5hSzT+k6EMnrx5PAl9g+ediZq2HUOf7aMrYqsTv0SQ1aLk
ldDVjuol0w==
-----END CERTIFICATE-----
