Certificate:
    Data:
        Version: 3 (0x2)
        Serial Number: 2 (0x2)
        Signature Algorithm: sha1WithRSAEncryption
        Issuer: C=US, O=SmoothStack, OU=SmoothStack Certificate Authority, CN=SmoothStack TLS CA
        Validity
            Not Before: Feb  8 19:52:23 2022 GMT
            Not After : Feb  8 19:52:23 2024 GMT
        Subject: C=US, ST=MI, L=Novi, O=SmoothStack, OU=ss c++, CN=ss c++
        Subject Public Key Info:
            Public Key Algorithm: rsaEncryption
                RSA Public-Key: (2048 bit)
                Modulus:
                    00:dd:8f:42:3f:c2:0d:5d:de:47:35:c7:bb:c1:79:
                    2d:07:f9:d8:77:1f:2f:f4:0b:bf:ea:8a:bc:ab:d5:
                    f4:fc:f5:39:56:74:4e:5a:8b:a1:5d:38:22:1d:1d:
                    cc:99:b5:60:72:44:7e:f4:b2:73:81:8b:a2:80:dd:
                    af:26:69:ca:15:0d:3d:a6:91:fa:aa:ad:40:df:b6:
                    2c:b7:d4:ac:84:70:cf:08:84:2e:9e:16:6a:70:ef:
                    55:be:4a:c7:2f:32:72:7f:12:6d:b2:96:98:2a:51:
                    6e:39:b9:97:6b:1f:5f:c6:46:1c:2e:a2:76:5d:e6:
                    ba:73:ec:84:f5:59:60:19:fc:39:e9:2c:7b:14:6e:
                    39:3f:0f:25:96:16:eb:d7:fb:61:f9:bc:30:26:27:
                    74:26:ff:fe:0a:db:65:28:02:84:ac:59:1e:20:7b:
                    da:4b:71:cd:ba:b5:b7:8f:5c:8f:61:30:71:f7:a7:
                    2e:8f:4f:62:92:84:7b:37:dd:95:60:dd:39:d8:b2:
                    ff:da:84:dd:bc:e9:82:72:2a:6f:d2:9b:3a:9c:cb:
                    b0:db:7c:00:d9:a2:cb:66:a4:99:6f:04:b5:39:7c:
                    bf:56:e2:3f:da:6b:e7:d9:6a:a7:f6:76:d1:b2:9f:
                    fa:1a:6a:cd:d4:04:1a:ce:33:8a:a4:de:c8:75:32:
                    d9:45
                Exponent: 65537 (0x10001)
        X509v3 extensions:
            X509v3 Key Usage: critical
                Digital Signature
            X509v3 Basic Constraints: 
                CA:FALSE
            X509v3 Extended Key Usage: 
                TLS Web Client Authentication
            X509v3 Subject Key Identifier: 
                5B:E8:80:7D:F0:DF:88:05:6E:12:25:EC:BE:5F:FB:9F:79:BC:42:33
            X509v3 Authority Key Identifier: 
                keyid:79:AE:F2:A8:DE:F2:EF:9A:87:5F:C3:F5:1F:6F:63:2C:58:29:46:3A

            Authority Information Access: 
                CA Issuers - URI:http://smoothstack.no/ca/tls-ca.cer

            X509v3 CRL Distribution Points: 

                Full Name:
                  URI:http://smoothstack.no/ca/tls-ca.crl

            X509v3 Subject Alternative Name: 
                email:marc.gomez@smoothstack.com
    Signature Algorithm: sha1WithRSAEncryption
         0d:50:87:82:7d:b9:9f:c0:d4:98:ee:53:ec:10:ad:4b:af:62:
         3c:df:da:d6:85:1b:a9:9e:59:4b:ac:7a:78:4a:d5:d3:60:e5:
         17:52:b1:c6:f3:48:61:07:fd:4d:c9:56:52:06:a3:e4:e9:79:
         67:f1:69:cb:61:4f:12:c8:c6:3f:f9:db:c7:73:6d:da:7c:0b:
         28:88:a4:95:37:a5:7c:15:7b:99:bf:a7:af:84:a2:6f:f1:15:
         ae:95:05:36:cc:9a:ff:ee:cb:ff:7b:b8:aa:ed:2f:22:0a:1d:
         b2:01:14:27:ec:50:1f:e0:f7:e3:b2:59:7f:05:cc:97:d3:95:
         ec:c3:44:8d:0d:2c:73:b1:4b:bd:d2:2e:cb:6f:88:d5:3f:5d:
         89:63:6a:7a:6e:7c:50:ac:20:43:99:a6:3a:66:e9:49:32:2d:
         c6:c5:ed:56:f3:bc:b1:82:92:e4:83:4e:e5:34:e5:72:9c:47:
         a4:29:bf:52:66:c5:e2:7f:df:0d:7f:f5:b2:c0:1d:30:dd:8e:
         be:5e:bb:7a:93:c6:66:b5:08:cf:ec:05:cf:ed:d1:b9:37:2a:
         9f:e0:b2:c9:9c:89:99:46:0c:a3:6d:a9:0f:3d:98:7e:49:83:
         96:f1:0b:20:d8:77:b5:5d:12:52:0b:0a:70:3e:eb:2f:18:2c:
         7a:f6:59:50
-----BEGIN CERTIFICATE-----
MIIEXDCCA0SgAwIBAgIBAjANBgkqhkiG9w0BAQUFADBsMQswCQYDVQQGEwJVUzEU
MBIGA1UECgwLU21vb3RoU3RhY2sxKjAoBgNVBAsMIVNtb290aFN0YWNrIENlcnRp
ZmljYXRlIEF1dGhvcml0eTEbMBkGA1UEAwwSU21vb3RoU3RhY2sgVExTIENBMB4X
DTIyMDIwODE5NTIyM1oXDTI0MDIwODE5NTIyM1owYTELMAkGA1UEBhMCVVMxCzAJ
BgNVBAgMAk1JMQ0wCwYDVQQHDAROb3ZpMRQwEgYDVQQKDAtTbW9vdGhTdGFjazEP
MA0GA1UECwwGc3MgYysrMQ8wDQYDVQQDDAZzcyBjKyswggEiMA0GCSqGSIb3DQEB
AQUAA4IBDwAwggEKAoIBAQDdj0I/wg1d3kc1x7vBeS0H+dh3Hy/0C7/qiryr1fT8
9TlWdE5ai6FdOCIdHcyZtWByRH70snOBi6KA3a8macoVDT2mkfqqrUDftiy31KyE
cM8IhC6eFmpw71W+SscvMnJ/Em2ylpgqUW45uZdrH1/GRhwuonZd5rpz7IT1WWAZ
/DnpLHsUbjk/DyWWFuvX+2H5vDAmJ3Qm//4K22UoAoSsWR4ge9pLcc26tbePXI9h
MHH3py6PT2KShHs33ZVg3TnYsv/ahN286YJyKm/Smzqcy7DbfADZostmpJlvBLU5
fL9W4j/aa+fZaqf2dtGyn/oaas3UBBrOM4qk3sh1MtlFAgMBAAGjggESMIIBDjAO
BgNVHQ8BAf8EBAMCB4AwCQYDVR0TBAIwADATBgNVHSUEDDAKBggrBgEFBQcDAjAd
BgNVHQ4EFgQUW+iAffDfiAVuEiXsvl/7n3m8QjMwHwYDVR0jBBgwFoAUea7yqN7y
75qHX8P1H29jLFgpRjowPwYIKwYBBQUHAQEEMzAxMC8GCCsGAQUFBzAChiNodHRw
Oi8vc21vb3Roc3RhY2subm8vY2EvdGxzLWNhLmNlcjA0BgNVHR8ELTArMCmgJ6Al
hiNodHRwOi8vc21vb3Roc3RhY2subm8vY2EvdGxzLWNhLmNybDAlBgNVHREEHjAc
gRptYXJjLmdvbWV6QHNtb290aHN0YWNrLmNvbTANBgkqhkiG9w0BAQUFAAOCAQEA
DVCHgn25n8DUmO5T7BCtS69iPN/a1oUbqZ5ZS6x6eErV02DlF1KxxvNIYQf9TclW
Ugaj5Ol5Z/Fpy2FPEsjGP/nbx3Nt2nwLKIiklTelfBV7mb+nr4Sib/EVrpUFNsya
/+7L/3u4qu0vIgodsgEUJ+xQH+D347JZfwXMl9OV7MNEjQ0sc7FLvdIuy2+I1T9d
iWNqem58UKwgQ5mmOmbpSTItxsXtVvO8sYKS5INO5TTlcpxHpCm/UmbF4n/fDX/1
ssAdMN2Ovl67epPGZrUIz+wFz+3RuTcqn+CyyZyJmUYMo22pDz2YfkmDlvELINh3
tV0SUgsKcD7rLxgsevZZUA==
-----END CERTIFICATE-----
