Certificate:
    Data:
        Version: 3 (0x2)
        Serial Number: 4 (0x4)
        Signature Algorithm: sha1WithRSAEncryption
        Issuer: C=US, O=SmoothStack, OU=SmoothStack Certificate Authority, CN=SmoothStack TLS CA
        Validity
            Not Before: Feb  8 19:54:16 2022 GMT
            Not After : Feb  8 19:54:16 2024 GMT
        Subject: C=US, ST=MI, L=Novi, O=ss, OU=ss c++, CN=ss c++
        Subject Public Key Info:
            Public Key Algorithm: rsaEncryption
                RSA Public-Key: (2048 bit)
                Modulus:
                    00:ab:db:92:d0:7a:af:3b:ce:78:a4:cb:05:f8:ed:
                    66:e6:18:e6:cf:e2:44:7c:21:7c:84:ff:14:66:1d:
                    49:bf:2a:4f:ab:31:9e:d8:75:01:68:45:88:05:ec:
                    10:4c:2d:a9:ca:ae:2f:ce:29:54:e7:4b:dc:95:3f:
                    57:d3:e9:88:44:53:e8:11:da:9a:48:0f:30:60:e3:
                    d0:bf:2c:92:82:67:a7:f4:a2:c8:e3:26:47:cd:8a:
                    0a:12:39:34:be:80:bf:ca:c1:d0:b5:98:6f:ce:9b:
                    b9:e7:00:aa:49:48:0a:e5:91:0f:6c:59:9e:12:c7:
                    5e:6b:69:36:71:75:bd:d5:19:58:e2:8d:fe:7c:c5:
                    cb:cd:62:c4:3b:70:b0:3b:20:03:a9:fa:e5:6c:db:
                    ad:5c:25:67:48:91:84:b1:2e:f5:8b:88:2b:10:f6:
                    30:8d:ff:18:16:39:d3:73:40:55:b0:88:0b:e4:9b:
                    54:63:55:d8:c0:31:b7:d2:f4:94:23:e4:a2:07:b3:
                    83:11:bf:74:88:89:9e:8b:70:fc:8e:f3:11:4e:3d:
                    38:be:c1:16:28:3b:84:fe:41:d2:aa:af:77:29:d1:
                    ad:b2:54:48:2a:bc:2d:97:13:24:10:db:de:de:c0:
                    5e:22:c8:f4:6e:c6:63:33:a9:67:ef:78:45:19:c7:
                    3a:5d
                Exponent: 65537 (0x10001)
        X509v3 extensions:
            X509v3 Key Usage: critical
                Digital Signature
            X509v3 Basic Constraints: 
                CA:FALSE
            X509v3 Extended Key Usage: 
                TLS Web Client Authentication
            X509v3 Subject Key Identifier: 
                0B:E3:92:62:D9:39:FD:56:D3:65:A8:A9:6F:9F:72:DC:27:A1:8A:CE
            X509v3 Authority Key Identifier: 
                keyid:79:AE:F2:A8:DE:F2:EF:9A:87:5F:C3:F5:1F:6F:63:2C:58:29:46:3A

            Authority Information Access: 
                CA Issuers - URI:http://smoothstack.no/ca/tls-ca.cer

            X509v3 CRL Distribution Points: 

                Full Name:
                  URI:http://smoothstack.no/ca/tls-ca.crl

            X509v3 Subject Alternative Name: 
                email:marc.gomez@smoothstack.com
    Signature Algorithm: sha1WithRSAEncryption
         5d:af:04:0e:14:d7:ae:dc:b9:41:4e:5e:2f:69:6d:4e:ea:e4:
         36:e3:0f:8a:0b:e2:d5:98:f4:3c:26:6a:29:7d:4a:6c:aa:57:
         a3:3a:9a:72:a2:4b:64:3e:7a:b5:97:62:0a:dd:e7:6f:18:3f:
         03:55:f9:ff:3b:8b:b5:8b:9c:00:57:a5:65:cb:d0:75:ef:ff:
         ee:bc:e2:b6:21:cf:00:df:e7:6a:9f:6c:af:ad:43:52:02:5a:
         3e:2e:23:3d:d9:90:71:fa:e4:9b:7e:43:f9:8c:c8:39:aa:af:
         65:4c:dd:c5:e6:7a:24:29:fd:54:6c:79:3e:33:b2:2c:e6:ba:
         da:35:e6:13:02:cb:2d:2b:04:8c:db:e2:d7:93:d2:93:20:59:
         56:61:c1:63:53:b0:9d:78:46:e6:16:67:60:a4:d7:8a:2b:53:
         a5:7e:42:8f:38:9b:04:61:6b:55:81:4c:78:f2:f4:10:a3:a9:
         f3:37:2b:a5:51:e6:2c:32:e0:35:1b:92:b9:18:32:17:59:55:
         cd:59:b5:f5:bb:f7:1c:a3:a8:f0:38:56:1a:bd:d1:15:a9:7a:
         ec:38:b4:9d:be:e2:d9:50:88:6f:e7:45:d7:5f:b0:9e:f5:ca:
         e4:fa:eb:45:87:0a:61:1a:6d:a6:0f:59:2f:1b:74:bd:d3:89:
         02:c8:c8:41
-----BEGIN CERTIFICATE-----
MIIEUzCCAzugAwIBAgIBBDANBgkqhkiG9w0BAQUFADBsMQswCQYDVQQGEwJVUzEU
MBIGA1UECgwLU21vb3RoU3RhY2sxKjAoBgNVBAsMIVNtb290aFN0YWNrIENlcnRp
ZmljYXRlIEF1dGhvcml0eTEbMBkGA1UEAwwSU21vb3RoU3RhY2sgVExTIENBMB4X
DTIyMDIwODE5NTQxNloXDTI0MDIwODE5NTQxNlowWDELMAkGA1UEBhMCVVMxCzAJ
BgNVBAgMAk1JMQ0wCwYDVQQHDAROb3ZpMQswCQYDVQQKDAJzczEPMA0GA1UECwwG
c3MgYysrMQ8wDQYDVQQDDAZzcyBjKyswggEiMA0GCSqGSIb3DQEBAQUAA4IBDwAw
ggEKAoIBAQCr25LQeq87znikywX47WbmGObP4kR8IXyE/xRmHUm/Kk+rMZ7YdQFo
RYgF7BBMLanKri/OKVTnS9yVP1fT6YhEU+gR2ppIDzBg49C/LJKCZ6f0osjjJkfN
igoSOTS+gL/KwdC1mG/Om7nnAKpJSArlkQ9sWZ4Sx15raTZxdb3VGVjijf58xcvN
YsQ7cLA7IAOp+uVs261cJWdIkYSxLvWLiCsQ9jCN/xgWOdNzQFWwiAvkm1RjVdjA
MbfS9JQj5KIHs4MRv3SIiZ6LcPyO8xFOPTi+wRYoO4T+QdKqr3cp0a2yVEgqvC2X
EyQQ297ewF4iyPRuxmMzqWfveEUZxzpdAgMBAAGjggESMIIBDjAOBgNVHQ8BAf8E
BAMCB4AwCQYDVR0TBAIwADATBgNVHSUEDDAKBggrBgEFBQcDAjAdBgNVHQ4EFgQU
C+OSYtk5/VbTZaipb59y3Cehis4wHwYDVR0jBBgwFoAUea7yqN7y75qHX8P1H29j
LFgpRjowPwYIKwYBBQUHAQEEMzAxMC8GCCsGAQUFBzAChiNodHRwOi8vc21vb3Ro
c3RhY2subm8vY2EvdGxzLWNhLmNlcjA0BgNVHR8ELTArMCmgJ6AlhiNodHRwOi8v
c21vb3Roc3RhY2subm8vY2EvdGxzLWNhLmNybDAlBgNVHREEHjAcgRptYXJjLmdv
bWV6QHNtb290aHN0YWNrLmNvbTANBgkqhkiG9w0BAQUFAAOCAQEAXa8EDhTXrty5
QU5eL2ltTurkNuMPigvi1Zj0PCZqKX1KbKpXozqacqJLZD56tZdiCt3nbxg/A1X5
/zuLtYucAFelZcvQde//7rzitiHPAN/nap9sr61DUgJaPi4jPdmQcfrkm35D+YzI
OaqvZUzdxeZ6JCn9VGx5PjOyLOa62jXmEwLLLSsEjNvi15PSkyBZVmHBY1OwnXhG
5hZnYKTXiitTpX5CjzibBGFrVYFMePL0EKOp8zcrpVHmLDLgNRuSuRgyF1lVzVm1
9bv3HKOo8DhWGr3RFal67Di0nb7i2VCIb+dF11+wnvXK5PrrRYcKYRptpg9ZLxt0
vdOJAsjIQQ==
-----END CERTIFICATE-----
