Certificate:
    Data:
        Version: 3 (0x2)
        Serial Number: 1 (0x1)
        Signature Algorithm: sha1WithRSAEncryption
        Issuer: C=US, O=SmoothStack, OU=SmoothStack Certificate Authority, CN=SmoothStack Document CA
        Validity
            Not Before: Feb  8 22:03:21 2022 GMT
            Not After : Feb  8 22:03:21 2027 GMT
        Subject: C=US, ST=MI, L=Novi, O=SmoothStack, OU=ss, CN=ss
        Subject Public Key Info:
            Public Key Algorithm: rsaEncryption
                RSA Public-Key: (2048 bit)
                Modulus:
                    00:b7:f6:da:e4:6d:84:d0:07:7d:6a:6c:dc:a4:96:
                    39:47:82:32:4a:2e:d7:6e:30:82:16:4c:0e:6d:51:
                    0a:9b:a2:d2:3c:dd:e0:a5:af:0b:34:de:03:5d:97:
                    96:51:c0:da:a2:5f:46:41:94:6e:46:2b:01:24:dc:
                    f1:b1:c4:4a:55:a0:6f:e3:81:e6:3c:36:4c:b1:73:
                    4e:fd:b2:cc:b2:57:e3:f4:18:59:30:0f:73:59:8a:
                    06:9e:b1:03:1b:a2:f8:fd:cf:af:29:fa:f4:f3:dc:
                    75:fd:d6:0a:3b:36:6a:29:19:14:e9:57:3d:e4:46:
                    39:52:f4:cc:11:f4:02:92:81:73:1d:ba:a0:29:04:
                    c4:3e:f3:fd:05:80:89:ea:99:26:ca:69:e2:eb:e7:
                    8b:5e:b0:f8:b7:d8:65:72:f1:40:50:cb:9c:4f:ca:
                    3d:0a:93:0f:79:ff:86:01:d9:d7:a5:55:db:42:e3:
                    5f:bf:1e:ba:e3:d1:65:83:20:38:d2:4e:64:91:00:
                    84:8d:f6:21:34:cc:97:be:1c:d8:15:f0:de:e0:57:
                    94:fa:53:86:ad:93:82:b4:28:35:e2:5b:c5:23:2f:
                    b9:ef:a4:15:29:84:a1:0c:6a:1f:b9:40:23:17:a0:
                    be:64:9c:5a:59:00:2b:47:b8:90:cc:27:e9:32:08:
                    2c:cd
                Exponent: 65537 (0x10001)
        X509v3 extensions:
            X509v3 Key Usage: critical
                Digital Signature
            X509v3 Basic Constraints: 
                CA:FALSE
            X509v3 Extended Key Usage: critical
                Code Signing
            X509v3 Subject Key Identifier: 
                CA:13:E1:EC:07:0F:64:8E:19:52:26:0B:F3:D4:29:6B:F9:76:31:D2
            X509v3 Authority Key Identifier: 
                keyid:26:6F:3C:A6:08:CE:EE:FC:B8:B6:D5:68:3E:81:5D:81:33:21:2A:3A

            Authority Information Access: 
                CA Issuers - URI:http://smoothstack.com/ca/document-ca.cer

            X509v3 CRL Distribution Points: 

                Full Name:
                  URI:http://smoothstack.com/ca/document-ca.crl

    Signature Algorithm: sha1WithRSAEncryption
         a4:8b:8a:e9:30:c5:ed:8a:fe:97:d3:9e:71:20:8b:b2:f4:75:
         62:4d:aa:a2:84:f0:5f:33:63:28:35:1a:aa:66:08:7d:c7:9a:
         ca:8e:bc:b7:40:fb:e9:24:2b:af:2a:7d:70:8d:71:d9:f6:1f:
         e5:27:05:55:e7:73:08:e3:d8:7b:8b:42:16:c1:90:8b:5b:d0:
         a7:36:95:79:58:97:7d:0b:89:7e:c5:e1:49:66:4e:e8:d2:45:
         23:50:94:a8:4d:88:54:ec:07:2a:ee:84:92:0e:d8:e4:09:03:
         49:03:3e:a9:1d:6a:ad:30:32:da:b6:88:0b:fe:55:06:7e:a1:
         43:80:21:75:17:2d:d6:26:a4:e9:4c:29:9a:c3:c0:d6:a3:ac:
         f0:41:98:02:81:29:0b:0d:ec:c4:ab:e0:39:bf:b5:0f:0f:55:
         c2:48:b3:43:6e:8d:28:af:ba:8c:8c:8b:72:f9:6d:04:ec:af:
         5e:6b:8e:0b:46:6a:8d:68:7a:c9:ff:6b:c4:32:e2:92:c5:aa:
         a0:20:7d:8d:b4:a8:b2:18:ce:4c:09:f2:a9:f3:96:06:f7:30:
         f8:f7:9b:34:24:21:65:c4:5f:11:7a:29:22:89:27:87:22:83:
         04:b8:45:10:96:39:e1:1d:cb:b3:40:76:8c:1f:8e:09:fc:7c:
         8c:05:57:c0
-----BEGIN CERTIFICATE-----
MIIEPzCCAyegAwIBAgIBATANBgkqhkiG9w0BAQUFADBxMQswCQYDVQQGEwJVUzEU
MBIGA1UECgwLU21vb3RoU3RhY2sxKjAoBgNVBAsMIVNtb290aFN0YWNrIENlcnRp
ZmljYXRlIEF1dGhvcml0eTEgMB4GA1UEAwwXU21vb3RoU3RhY2sgRG9jdW1lbnQg
Q0EwHhcNMjIwMjA4MjIwMzIxWhcNMjcwMjA4MjIwMzIxWjBZMQswCQYDVQQGEwJV
UzELMAkGA1UECAwCTUkxDTALBgNVBAcMBE5vdmkxFDASBgNVBAoMC1Ntb290aFN0
YWNrMQswCQYDVQQLDAJzczELMAkGA1UEAwwCc3MwggEiMA0GCSqGSIb3DQEBAQUA
A4IBDwAwggEKAoIBAQC39trkbYTQB31qbNykljlHgjJKLtduMIIWTA5tUQqbotI8
3eClrws03gNdl5ZRwNqiX0ZBlG5GKwEk3PGxxEpVoG/jgeY8Nkyxc079ssyyV+P0
GFkwD3NZigaesQMbovj9z68p+vTz3HX91go7NmopGRTpVz3kRjlS9MwR9AKSgXMd
uqApBMQ+8/0FgInqmSbKaeLr54tesPi32GVy8UBQy5xPyj0Kkw95/4YB2delVdtC
41+/Hrrj0WWDIDjSTmSRAISN9iE0zJe+HNgV8N7gV5T6U4atk4K0KDXiW8UjL7nv
pBUphKEMah+5QCMXoL5knFpZACtHuJDMJ+kyCCzNAgMBAAGjgfkwgfYwDgYDVR0P
AQH/BAQDAgeAMAkGA1UdEwQCMAAwFgYDVR0lAQH/BAwwCgYIKwYBBQUHAwMwHQYD
VR0OBBYEFMoT4ewHD2SOGVImC/PUKWv5djHSMB8GA1UdIwQYMBaAFCZvPKYIzu78
uLbVaD6BXYEzISo6MEUGCCsGAQUFBwEBBDkwNzA1BggrBgEFBQcwAoYpaHR0cDov
L3Ntb290aHN0YWNrLmNvbS9jYS9kb2N1bWVudC1jYS5jZXIwOgYDVR0fBDMwMTAv
oC2gK4YpaHR0cDovL3Ntb290aHN0YWNrLmNvbS9jYS9kb2N1bWVudC1jYS5jcmww
DQYJKoZIhvcNAQEFBQADggEBAKSLiukwxe2K/pfTnnEgi7L0dWJNqqKE8F8zYyg1
GqpmCH3HmsqOvLdA++kkK68qfXCNcdn2H+UnBVXncwjj2HuLQhbBkItb0Kc2lXlY
l30LiX7F4UlmTujSRSNQlKhNiFTsByruhJIO2OQJA0kDPqkdaq0wMtq2iAv+VQZ+
oUOAIXUXLdYmpOlMKZrDwNajrPBBmAKBKQsN7MSr4Dm/tQ8PVcJIs0NujSivuoyM
i3L5bQTsr15rjgtGao1oesn/a8Qy4pLFqqAgfY20qLIYzkwJ8qnzlgb3MPj3mzQk
IWXEXxF6KSKJJ4cigwS4RRCWOeEdy7NAdowfjgn8fIwFV8A=
-----END CERTIFICATE-----
