Certificate:
    Data:
        Version: 3 (0x2)
        Serial Number: 2 (0x2)
        Signature Algorithm: sha1WithRSAEncryption
        Issuer: C=US, O=SmoothStack, OU=SmoothStack Certificate Authority, CN=SmoothStack Document CA
        Validity
            Not Before: Feb  8 22:04:37 2022 GMT
            Not After : Feb  8 22:04:37 2027 GMT
        Subject: C=US, ST=MI, L=Novi, O=SmoothStack, OU=ss, CN=ss
        Subject Public Key Info:
            Public Key Algorithm: rsaEncryption
                RSA Public-Key: (2048 bit)
                Modulus:
                    00:b5:82:8e:80:3d:0c:cc:b5:7e:a2:ef:43:3a:05:
                    83:15:6d:19:41:13:f2:c0:ad:f7:37:b7:94:dd:89:
                    b8:4f:dd:8e:81:29:53:a9:58:85:eb:00:45:b4:06:
                    4b:6b:97:d4:04:15:27:c4:5e:5d:91:a7:86:b9:a0:
                    a9:fc:6e:a2:84:9e:07:75:8a:c9:72:9f:bf:91:53:
                    b0:30:d2:54:03:cf:6e:67:cd:2a:67:a8:76:c1:57:
                    79:37:ea:11:78:b8:37:b3:a4:d9:d4:5a:c4:32:57:
                    f3:1e:6d:65:ad:6c:46:7e:94:c6:94:7b:7f:36:5d:
                    23:23:f6:e2:6b:14:87:dd:15:3c:a5:b9:fc:81:91:
                    34:a5:2e:7a:ba:91:fe:0f:08:c6:f2:91:65:cc:fb:
                    7e:0f:ce:76:6d:f5:ad:22:08:14:3c:76:0c:88:27:
                    65:46:0e:9f:af:5c:ac:9d:ba:a8:a2:74:32:ec:66:
                    6f:7e:43:45:7d:e0:de:ef:a7:5e:a7:db:6f:c6:79:
                    4f:95:f5:d1:8b:86:ba:54:ef:95:ed:d7:16:af:c2:
                    fc:d9:b3:5e:2b:3a:b3:c8:bd:dc:f1:7b:85:d4:aa:
                    da:ef:a9:54:97:da:b4:ad:be:9d:d0:51:ea:19:09:
                    a3:bd:4b:f0:0a:29:56:d2:56:b0:b7:09:31:8f:b2:
                    83:85
                Exponent: 65537 (0x10001)
        X509v3 extensions:
            X509v3 Key Usage: critical
                Digital Signature
            X509v3 Basic Constraints: 
                CA:FALSE
            X509v3 Extended Key Usage: critical
                Code Signing
            X509v3 Subject Key Identifier: 
                57:DF:6C:73:A6:FC:75:56:A6:18:24:10:92:1B:02:A7:86:00:AD:7C
            X509v3 Authority Key Identifier: 
                keyid:26:6F:3C:A6:08:CE:EE:FC:B8:B6:D5:68:3E:81:5D:81:33:21:2A:3A

            Authority Information Access: 
                CA Issuers - URI:http://smoothstack.com/ca/document-ca.cer

            X509v3 CRL Distribution Points: 

                Full Name:
                  URI:http://smoothstack.com/ca/document-ca.crl

    Signature Algorithm: sha1WithRSAEncryption
         1f:64:9b:79:b2:56:ea:8d:43:ca:62:2f:64:a4:9e:84:07:2c:
         e3:24:b8:08:9e:a5:65:38:21:62:c1:ca:b5:d0:a2:fe:35:94:
         9d:fd:8d:14:76:37:f0:6a:41:23:5a:6c:ee:c0:75:2e:fa:8a:
         be:63:af:53:fe:52:45:42:95:1f:0a:81:44:3d:9a:6a:56:cf:
         da:2f:82:c3:19:67:9f:10:cf:5f:6a:03:56:65:9f:67:d6:84:
         c3:3a:e0:3a:35:8d:77:ff:93:05:02:ef:90:d6:ca:17:7f:bc:
         5f:9d:9e:86:6b:80:d3:5e:a6:67:20:64:23:8d:a2:e5:dd:f2:
         ed:2b:7e:21:b1:2c:eb:32:61:39:fd:78:73:15:29:1d:c0:45:
         ef:67:39:7a:41:31:3b:c8:b0:4f:bb:8d:d0:8c:f7:e1:f7:9b:
         fd:22:1b:3b:06:ee:d7:a4:1a:bb:a9:c0:d3:32:29:79:f6:85:
         ec:c9:a1:6b:73:8c:ec:bf:c4:ad:8f:b4:9a:27:aa:6b:34:9e:
         ca:7e:49:a8:78:c5:c4:5d:3c:9f:d7:4e:99:b6:13:00:74:6d:
         d2:3a:98:c6:8d:9c:d5:f7:49:fa:7c:80:75:77:b1:f0:8c:e7:
         cd:2f:12:ff:40:a7:e3:de:71:72:b9:15:7c:18:19:2a:3d:0a:
         fe:13:fd:e1
-----BEGIN CERTIFICATE-----
MIIEPzCCAyegAwIBAgIBAjANBgkqhkiG9w0BAQUFADBxMQswCQYDVQQGEwJVUzEU
MBIGA1UECgwLU21vb3RoU3RhY2sxKjAoBgNVBAsMIVNtb290aFN0YWNrIENlcnRp
ZmljYXRlIEF1dGhvcml0eTEgMB4GA1UEAwwXU21vb3RoU3RhY2sgRG9jdW1lbnQg
Q0EwHhcNMjIwMjA4MjIwNDM3WhcNMjcwMjA4MjIwNDM3WjBZMQswCQYDVQQGEwJV
UzELMAkGA1UECAwCTUkxDTALBgNVBAcMBE5vdmkxFDASBgNVBAoMC1Ntb290aFN0
YWNrMQswCQYDVQQLDAJzczELMAkGA1UEAwwCc3MwggEiMA0GCSqGSIb3DQEBAQUA
A4IBDwAwggEKAoIBAQC1go6APQzMtX6i70M6BYMVbRlBE/LArfc3t5TdibhP3Y6B
KVOpWIXrAEW0Bktrl9QEFSfEXl2Rp4a5oKn8bqKEngd1islyn7+RU7Aw0lQDz25n
zSpnqHbBV3k36hF4uDezpNnUWsQyV/MebWWtbEZ+lMaUe382XSMj9uJrFIfdFTyl
ufyBkTSlLnq6kf4PCMbykWXM+34PznZt9a0iCBQ8dgyIJ2VGDp+vXKyduqiidDLs
Zm9+Q0V94N7vp16n22/GeU+V9dGLhrpU75Xt1xavwvzZs14rOrPIvdzxe4XUqtrv
qVSX2rStvp3QUeoZCaO9S/AKKVbSVrC3CTGPsoOFAgMBAAGjgfkwgfYwDgYDVR0P
AQH/BAQDAgeAMAkGA1UdEwQCMAAwFgYDVR0lAQH/BAwwCgYIKwYBBQUHAwMwHQYD
VR0OBBYEFFffbHOm/HVWphgkEJIbAqeGAK18MB8GA1UdIwQYMBaAFCZvPKYIzu78
uLbVaD6BXYEzISo6MEUGCCsGAQUFBwEBBDkwNzA1BggrBgEFBQcwAoYpaHR0cDov
L3Ntb290aHN0YWNrLmNvbS9jYS9kb2N1bWVudC1jYS5jZXIwOgYDVR0fBDMwMTAv
oC2gK4YpaHR0cDovL3Ntb290aHN0YWNrLmNvbS9jYS9kb2N1bWVudC1jYS5jcmww
DQYJKoZIhvcNAQEFBQADggEBAB9km3myVuqNQ8piL2SknoQHLOMkuAiepWU4IWLB
yrXQov41lJ39jRR2N/BqQSNabO7AdS76ir5jr1P+UkVClR8KgUQ9mmpWz9ovgsMZ
Z58Qz19qA1Zln2fWhMM64Do1jXf/kwUC75DWyhd/vF+dnoZrgNNepmcgZCONouXd
8u0rfiGxLOsyYTn9eHMVKR3ARe9nOXpBMTvIsE+7jdCM9+H3m/0iGzsG7tekGrup
wNMyKXn2hezJoWtzjOy/xK2PtJonqms0nsp+Sah4xcRdPJ/XTpm2EwB0bdI6mMaN
nNX3Sfp8gHV3sfCM580vEv9Ap+PecXK5FXwYGSo9Cv4T/eE=
-----END CERTIFICATE-----
