Certificate:
    Data:
        Version: 3 (0x2)
        Serial Number: 4 (0x4)
        Signature Algorithm: sha1WithRSAEncryption
        Issuer: C=US, O=SmoothStack, OU=SmoothStack Certificate Authority, CN=SmoothStack Root CA
        Validity
            Not Before: Feb  8 19:50:05 2022 GMT
            Not After : Feb  8 19:50:05 2032 GMT
        Subject: C=US, O=SmoothStack, OU=SmoothStack Certificate Authority, CN=SmoothStack TLS CA
        Subject Public Key Info:
            Public Key Algorithm: rsaEncryption
                RSA Public-Key: (2048 bit)
                Modulus:
                    00:c7:3e:1d:3c:2f:3b:6d:e3:59:91:7a:6d:52:d7:
                    6e:e0:95:15:2a:a9:35:8f:90:26:a0:51:4d:e3:83:
                    b6:7d:a1:80:27:34:7f:9d:23:c0:6c:b4:18:90:3d:
                    91:70:f9:0a:0b:4d:c7:2c:a9:37:c4:3e:9a:02:5e:
                    9c:e4:24:05:46:d7:51:79:a9:b4:8f:b7:cf:07:66:
                    22:60:78:6a:4d:cb:89:18:8a:6a:00:da:e5:70:ed:
                    ee:d7:20:06:7e:f4:5a:a8:2e:b9:f4:2c:54:4e:7a:
                    29:11:1e:6b:e7:8c:e6:4b:11:68:72:39:82:b8:de:
                    20:be:59:6c:96:5a:7a:ea:8a:98:c5:8b:1a:43:a3:
                    36:17:73:dd:3e:75:04:0a:51:74:06:e8:4c:fe:40:
                    c9:fb:4e:aa:17:1e:62:41:85:b2:8b:fa:df:a2:55:
                    c0:2d:fa:73:a9:44:12:02:4d:44:cd:f9:cb:75:4c:
                    94:e2:34:4e:ea:63:70:bd:84:a2:99:0a:3e:7c:c0:
                    d1:aa:ca:bb:b4:da:ff:fd:a5:f0:8c:1c:d2:ec:e6:
                    f8:8f:dd:44:e9:69:f3:cb:fc:31:8c:f4:c7:0d:46:
                    f2:87:2c:1b:f1:68:d8:dc:3d:df:6b:0d:a3:54:4d:
                    a7:1c:5d:a8:62:b6:76:b0:10:18:88:fd:ae:0b:da:
                    a0:a7
                Exponent: 65537 (0x10001)
        X509v3 extensions:
            X509v3 Key Usage: critical
                Certificate Sign, CRL Sign
            X509v3 Basic Constraints: critical
                CA:TRUE, pathlen:0
            X509v3 Subject Key Identifier: 
                79:AE:F2:A8:DE:F2:EF:9A:87:5F:C3:F5:1F:6F:63:2C:58:29:46:3A
            X509v3 Authority Key Identifier: 
                keyid:63:6F:42:D4:42:40:B3:87:2C:51:45:19:1F:40:D5:9E:17:62:4D:A0

            Authority Information Access: 
                CA Issuers - URI:http://smoothstack.com/ca/root-ca.cer

            X509v3 CRL Distribution Points: 

                Full Name:
                  URI:http://smoothstack.com/ca/root-ca.crl

    Signature Algorithm: sha1WithRSAEncryption
         76:44:d5:aa:1f:5b:6c:38:50:4e:94:9d:e5:09:d2:76:94:cf:
         07:02:ab:e5:62:3a:d7:96:56:a3:29:65:e4:91:3f:25:f0:32:
         a4:13:03:53:4f:80:37:7c:82:a9:94:73:77:f9:50:6c:ca:7e:
         41:05:ed:1b:83:6c:ea:ff:09:b9:7f:93:b9:ca:ef:d8:ad:35:
         59:d5:e2:90:0c:d1:29:95:bc:a3:f6:b8:9e:af:c4:40:d5:58:
         30:f0:88:ae:d2:21:fc:8c:1b:b7:95:95:20:33:e8:5b:4f:9d:
         40:98:52:54:31:52:0c:fc:17:0d:b7:1c:9a:18:4e:6a:72:37:
         59:3a:72:48:71:be:c2:20:7b:36:bd:00:6d:a2:36:7b:63:4c:
         b1:07:1a:3b:a3:2d:20:44:bd:80:11:cd:e5:6e:f1:fe:5a:d2:
         38:7e:30:13:53:92:ce:16:98:48:19:11:aa:07:77:e5:f6:c5:
         8d:c4:f4:17:4d:00:1f:14:da:d5:c0:c9:6b:5d:80:42:52:6d:
         3a:10:a5:82:3d:ae:1f:88:3f:c2:37:05:a4:1f:e6:71:a7:55:
         2d:44:38:2c:f2:c3:7b:f9:f6:d7:e7:d8:31:16:a1:be:e4:e6:
         74:86:ff:0c:e5:c3:2c:10:7a:0b:eb:6e:d0:2c:5c:80:c7:da:
         a2:79:c2:5c
-----BEGIN CERTIFICATE-----
MIIENzCCAx+gAwIBAgIBBDANBgkqhkiG9w0BAQUFADBtMQswCQYDVQQGEwJVUzEU
MBIGA1UECgwLU21vb3RoU3RhY2sxKjAoBgNVBAsMIVNtb290aFN0YWNrIENlcnRp
ZmljYXRlIEF1dGhvcml0eTEcMBoGA1UEAwwTU21vb3RoU3RhY2sgUm9vdCBDQTAe
Fw0yMjAyMDgxOTUwMDVaFw0zMjAyMDgxOTUwMDVaMGwxCzAJBgNVBAYTAlVTMRQw
EgYDVQQKDAtTbW9vdGhTdGFjazEqMCgGA1UECwwhU21vb3RoU3RhY2sgQ2VydGlm
aWNhdGUgQXV0aG9yaXR5MRswGQYDVQQDDBJTbW9vdGhTdGFjayBUTFMgQ0EwggEi
MA0GCSqGSIb3DQEBAQUAA4IBDwAwggEKAoIBAQDHPh08Lztt41mRem1S127glRUq
qTWPkCagUU3jg7Z9oYAnNH+dI8BstBiQPZFw+QoLTccsqTfEPpoCXpzkJAVG11F5
qbSPt88HZiJgeGpNy4kYimoA2uVw7e7XIAZ+9FqoLrn0LFROeikRHmvnjOZLEWhy
OYK43iC+WWyWWnrqipjFixpDozYXc90+dQQKUXQG6Ez+QMn7TqoXHmJBhbKL+t+i
VcAt+nOpRBICTUTN+ct1TJTiNE7qY3C9hKKZCj58wNGqyru02v/9pfCMHNLs5viP
3UTpafPL/DGM9McNRvKHLBvxaNjcPd9rDaNUTaccXahitnawEBiI/a4L2qCnAgMB
AAGjgeIwgd8wDgYDVR0PAQH/BAQDAgEGMBIGA1UdEwEB/wQIMAYBAf8CAQAwHQYD
VR0OBBYEFHmu8qje8u+ah1/D9R9vYyxYKUY6MB8GA1UdIwQYMBaAFGNvQtRCQLOH
LFFFGR9A1Z4XYk2gMEEGCCsGAQUFBwEBBDUwMzAxBggrBgEFBQcwAoYlaHR0cDov
L3Ntb290aHN0YWNrLmNvbS9jYS9yb290LWNhLmNlcjA2BgNVHR8ELzAtMCugKaAn
hiVodHRwOi8vc21vb3Roc3RhY2suY29tL2NhL3Jvb3QtY2EuY3JsMA0GCSqGSIb3
DQEBBQUAA4IBAQB2RNWqH1tsOFBOlJ3lCdJ2lM8HAqvlYjrXllajKWXkkT8l8DKk
EwNTT4A3fIKplHN3+VBsyn5BBe0bg2zq/wm5f5O5yu/YrTVZ1eKQDNEplbyj9rie
r8RA1Vgw8Iiu0iH8jBu3lZUgM+hbT51AmFJUMVIM/BcNtxyaGE5qcjdZOnJIcb7C
IHs2vQBtojZ7Y0yxBxo7oy0gRL2AEc3lbvH+WtI4fjATU5LOFphIGRGqB3fl9sWN
xPQXTQAfFNrVwMlrXYBCUm06EKWCPa4fiD/CNwWkH+Zxp1UtRDgs8sN7+fbX59gx
FqG+5OZ0hv8M5cMsEHoL627QLFyAx9qiecJc
-----END CERTIFICATE-----
Certificate:
    Data:
        Version: 3 (0x2)
        Serial Number: 1 (0x1)
        Signature Algorithm: sha1WithRSAEncryption
        Issuer: C=US, O=SmoothStack, OU=SmoothStack Certificate Authority, CN=SmoothStack Root CA
        Validity
            Not Before: Feb  8 19:43:38 2022 GMT
            Not After : Dec 31 23:59:59 2030 GMT
        Subject: C=US, O=SmoothStack, OU=SmoothStack Certificate Authority, CN=SmoothStack Root CA
        Subject Public Key Info:
            Public Key Algorithm: rsaEncryption
                RSA Public-Key: (2048 bit)
                Modulus:
                    00:cd:11:b5:c6:9f:8a:4f:45:59:6d:ce:fd:77:28:
                    c4:1c:f1:9e:4b:7d:b5:cc:1e:6d:34:e5:e4:48:20:
                    14:5c:ec:91:48:8c:b9:1c:7e:0a:64:3f:63:37:82:
                    f6:4f:e7:f6:d6:ae:a4:bd:9b:4e:af:4c:c1:ab:16:
                    05:73:2a:62:e7:ae:de:3a:48:3a:ff:d6:95:78:e2:
                    ef:11:2b:5f:b7:c8:ca:c5:e4:f6:18:05:c1:e5:ea:
                    35:04:03:9a:31:ea:5c:5c:26:0a:9c:b2:dc:79:f9:
                    e2:18:bd:41:12:e9:ec:9b:ba:18:29:82:7c:3f:c5:
                    92:0a:b2:da:a3:71:24:c5:d9:40:4c:c7:e9:85:16:
                    1f:b4:8f:37:b3:1d:55:dd:1e:d1:72:da:46:eb:e0:
                    f6:e5:55:21:89:10:3a:3c:ed:6c:1f:57:a4:71:13:
                    0e:1d:7f:84:d2:5d:e1:30:af:50:47:41:d3:71:c6:
                    b4:c8:18:84:68:91:8f:18:80:dc:2a:ca:b3:f1:13:
                    0d:f7:3b:02:ad:a8:05:f1:09:06:30:2f:dc:c6:f0:
                    1e:cb:e2:f1:ae:3d:ed:f8:d8:c2:85:47:5e:55:77:
                    c1:13:7f:6e:fa:4f:ad:69:2a:67:41:5f:4d:07:a2:
                    8f:65:40:d9:91:4f:7a:d4:f9:d1:fc:a4:e9:53:b8:
                    0c:65
                Exponent: 65537 (0x10001)
        X509v3 extensions:
            X509v3 Key Usage: critical
                Certificate Sign, CRL Sign
            X509v3 Basic Constraints: critical
                CA:TRUE
            X509v3 Subject Key Identifier: 
                63:6F:42:D4:42:40:B3:87:2C:51:45:19:1F:40:D5:9E:17:62:4D:A0
            X509v3 Authority Key Identifier: 
                keyid:63:6F:42:D4:42:40:B3:87:2C:51:45:19:1F:40:D5:9E:17:62:4D:A0

    Signature Algorithm: sha1WithRSAEncryption
         95:eb:0c:f8:f5:96:09:21:ab:78:2d:2b:dc:47:cb:6b:fb:e9:
         7d:99:0e:1b:fa:7b:81:db:01:46:06:93:2a:f3:d3:9f:81:e6:
         b5:1f:6c:89:3c:c9:e3:98:4a:dd:dc:43:c8:a6:61:50:53:20:
         cf:9b:ce:2e:d7:17:7a:94:43:8b:f9:64:ab:7c:98:2e:be:1a:
         f5:95:4e:22:c2:68:c1:ff:56:ed:32:ec:85:59:86:27:27:74:
         76:65:0b:3e:49:7a:01:f7:06:18:12:dd:4f:4b:a5:7e:39:29:
         fa:c4:d6:98:81:03:4a:c0:40:02:d8:9f:bc:db:ad:0f:6b:32:
         59:08:37:19:84:4f:9f:a9:b3:b2:5c:69:b0:89:75:6b:a5:e0:
         b3:3f:a9:68:00:d1:a2:47:6a:60:9d:f4:db:b5:72:7f:54:07:
         ca:1e:07:07:f9:be:dc:4b:f0:2e:9d:5b:0e:0c:f1:06:39:d6:
         a0:58:a2:97:ab:df:19:22:4d:cb:82:79:29:e2:d8:57:3a:d2:
         9f:0d:49:05:23:bf:0d:01:61:8f:b3:ea:d2:d6:0d:fa:ab:e1:
         a2:dd:e8:17:82:a1:cf:f2:6e:b4:95:ae:2d:68:7d:5c:11:19:
         4b:ff:80:44:4c:e7:d3:6a:18:26:cc:4b:43:e5:c1:b9:a5:2b:
         18:b0:b2:5d
-----BEGIN CERTIFICATE-----
MIIDuDCCAqCgAwIBAgIBATANBgkqhkiG9w0BAQUFADBtMQswCQYDVQQGEwJVUzEU
MBIGA1UECgwLU21vb3RoU3RhY2sxKjAoBgNVBAsMIVNtb290aFN0YWNrIENlcnRp
ZmljYXRlIEF1dGhvcml0eTEcMBoGA1UEAwwTU21vb3RoU3RhY2sgUm9vdCBDQTAe
Fw0yMjAyMDgxOTQzMzhaFw0zMDEyMzEyMzU5NTlaMG0xCzAJBgNVBAYTAlVTMRQw
EgYDVQQKDAtTbW9vdGhTdGFjazEqMCgGA1UECwwhU21vb3RoU3RhY2sgQ2VydGlm
aWNhdGUgQXV0aG9yaXR5MRwwGgYDVQQDDBNTbW9vdGhTdGFjayBSb290IENBMIIB
IjANBgkqhkiG9w0BAQEFAAOCAQ8AMIIBCgKCAQEAzRG1xp+KT0VZbc79dyjEHPGe
S321zB5tNOXkSCAUXOyRSIy5HH4KZD9jN4L2T+f21q6kvZtOr0zBqxYFcypi567e
Okg6/9aVeOLvEStft8jKxeT2GAXB5eo1BAOaMepcXCYKnLLcefniGL1BEunsm7oY
KYJ8P8WSCrLao3EkxdlATMfphRYftI83sx1V3R7RctpG6+D25VUhiRA6PO1sH1ek
cRMOHX+E0l3hMK9QR0HTcca0yBiEaJGPGIDcKsqz8RMN9zsCragF8QkGMC/cxvAe
y+Lxrj3t+NjChUdeVXfBE39u+k+taSpnQV9NB6KPZUDZkU961PnR/KTpU7gMZQID
AQABo2MwYTAOBgNVHQ8BAf8EBAMCAQYwDwYDVR0TAQH/BAUwAwEB/zAdBgNVHQ4E
FgQUY29C1EJAs4csUUUZH0DVnhdiTaAwHwYDVR0jBBgwFoAUY29C1EJAs4csUUUZ
H0DVnhdiTaAwDQYJKoZIhvcNAQEFBQADggEBAJXrDPj1lgkhq3gtK9xHy2v76X2Z
Dhv6e4HbAUYGkyrz05+B5rUfbIk8yeOYSt3cQ8imYVBTIM+bzi7XF3qUQ4v5ZKt8
mC6+GvWVTiLCaMH/Vu0y7IVZhicndHZlCz5JegH3BhgS3U9LpX45KfrE1piBA0rA
QALYn7zbrQ9rMlkINxmET5+ps7JcabCJdWul4LM/qWgA0aJHamCd9Nu1cn9UB8oe
Bwf5vtxL8C6dWw4M8QY51qBYoper3xkiTcuCeSni2Fc60p8NSQUjvw0BYY+z6tLW
Dfqr4aLd6BeCoc/ybrSVri1ofVwRGUv/gERM59NqGCbMS0PlwbmlKxiwsl0=
-----END CERTIFICATE-----
